target datalayout = "e-m:e-p270:32:32-p271:32:32-p272:64:64-i64:64-i128:128-f80:128-n8:16:32:64-S128"
target triple = "x86_64-pc-linux-gnu"

@.str = private unnamed_addr constant [33 x i8] c"../openssl/crypto/sm2/sm2_sign.c\00", align 1
@__func__.ossl_sm2_internal_verify = private unnamed_addr constant [25 x i8] c"ossl_sm2_internal_verify\00", align 1

; Function Attrs: nounwind uwtable
define i32 @ossl_sm2_internal_verify(ptr noundef %0, i32 noundef %1, ptr noundef %2, i32 noundef %3, ptr noundef %4) #0 {
  %6 = alloca ptr, align 8
  %7 = alloca i32, align 4
  %8 = alloca ptr, align 8
  %9 = alloca i32, align 4
  %10 = alloca ptr, align 8
  %11 = alloca ptr, align 8
  %12 = alloca ptr, align 8
  %13 = alloca ptr, align 8
  %14 = alloca ptr, align 8
  %15 = alloca i32, align 4
  %16 = alloca i32, align 4
  store ptr %0, ptr %6, align 8, !tbaa !3
  store i32 %1, ptr %7, align 4, !tbaa !14
  store ptr %2, ptr %8, align 8, !tbaa !3
  store i32 %3, ptr %9, align 4, !tbaa !14
  store ptr %4, ptr %10, align 8, !tbaa !12
  call void @llvm.lifetime.start.p0(i64 8, ptr %11) #4
  store ptr null, ptr %11, align 8, !tbaa !29
  call void @llvm.lifetime.start.p0(i64 8, ptr %12) #4
  store ptr null, ptr %12, align 8, !tbaa !24
  call void @llvm.lifetime.start.p0(i64 8, ptr %13) #4
  %17 = load ptr, ptr %8, align 8, !tbaa !3
  store ptr %17, ptr %13, align 8, !tbaa !3
  call void @llvm.lifetime.start.p0(i64 8, ptr %14) #4
  store ptr null, ptr %14, align 8, !tbaa !3
  call void @llvm.lifetime.start.p0(i64 4, ptr %15) #4
  store i32 -1, ptr %15, align 4, !tbaa !14
  call void @llvm.lifetime.start.p0(i64 4, ptr %16) #4
  store i32 -1, ptr %16, align 4, !tbaa !14
  %18 = call ptr @ECDSA_SIG_new()
  store ptr %18, ptr %11, align 8, !tbaa !29
  %19 = load ptr, ptr %11, align 8, !tbaa !29
  %20 = icmp eq ptr %19, null
  br i1 %20, label %21, label %22

21:                                               ; preds = %5
  call void @ERR_new()
  call void @ERR_set_debug(ptr noundef @.str, i32 noundef 509, ptr noundef @__func__.ossl_sm2_internal_verify)
  call void (i32, i32, ptr, ...) @ERR_set_error(i32 noundef 53, i32 noundef 524330, ptr noundef null)
  br label %54

22:                                               ; preds = %5
  %23 = load i32, ptr %9, align 4, !tbaa !14
  %24 = sext i32 %23 to i64
  %25 = call ptr @d2i_ECDSA_SIG(ptr noundef %11, ptr noundef %13, i64 noundef %24)
  %26 = icmp eq ptr %25, null
  br i1 %26, label %27, label %28

27:                                               ; preds = %22
  call void @ERR_new()
  call void @ERR_set_debug(ptr noundef @.str, i32 noundef 513, ptr noundef @__func__.ossl_sm2_internal_verify)
  call void (i32, i32, ptr, ...) @ERR_set_error(i32 noundef 53, i32 noundef 104, ptr noundef null)
  br label %54

28:                                               ; preds = %22
  %29 = load ptr, ptr %11, align 8, !tbaa !29
  %30 = call i32 @i2d_ECDSA_SIG(ptr noundef %29, ptr noundef %14)
  store i32 %30, ptr %15, align 4, !tbaa !14
  %31 = load i32, ptr %15, align 4, !tbaa !14
  %32 = load i32, ptr %9, align 4, !tbaa !14
  %33 = icmp ne i32 %31, %32
  br i1 %33, label %41, label %34

34:                                               ; preds = %28
  %35 = load ptr, ptr %8, align 8, !tbaa !3
  %36 = load ptr, ptr %14, align 8, !tbaa !3
  %37 = load i32, ptr %15, align 4, !tbaa !14
  %38 = sext i32 %37 to i64
  %39 = call i32 @memcmp(ptr noundef %35, ptr noundef %36, i64 noundef %38) #5
  %40 = icmp ne i32 %39, 0
  br i1 %40, label %41, label %42

41:                                               ; preds = %34, %28
  call void @ERR_new()
  call void @ERR_set_debug(ptr noundef @.str, i32 noundef 519, ptr noundef @__func__.ossl_sm2_internal_verify)
  call void (i32, i32, ptr, ...) @ERR_set_error(i32 noundef 53, i32 noundef 104, ptr noundef null)
  br label %54

42:                                               ; preds = %34
  %43 = load ptr, ptr %6, align 8, !tbaa !3
  %44 = load i32, ptr %7, align 4, !tbaa !14
  %45 = call ptr @BN_bin2bn(ptr noundef %43, i32 noundef %44, ptr noundef null)
  store ptr %45, ptr %12, align 8, !tbaa !24
  %46 = load ptr, ptr %12, align 8, !tbaa !24
  %47 = icmp eq ptr %46, null
  br i1 %47, label %48, label %49

48:                                               ; preds = %42
  call void @ERR_new()
  call void @ERR_set_debug(ptr noundef @.str, i32 noundef 525, ptr noundef @__func__.ossl_sm2_internal_verify)
  call void (i32, i32, ptr, ...) @ERR_set_error(i32 noundef 53, i32 noundef 524291, ptr noundef null)
  br label %54

49:                                               ; preds = %42
  %50 = load ptr, ptr %10, align 8, !tbaa !12
  %51 = load ptr, ptr %11, align 8, !tbaa !29
  %52 = load ptr, ptr %12, align 8, !tbaa !24
  %53 = call i32 @sm2_sig_verify(ptr noundef %50, ptr noundef %51, ptr noundef %52)
  store i32 %53, ptr %16, align 4, !tbaa !14
  br label %54

54:                                               ; preds = %49, %48, %41, %27, %21
  %55 = load ptr, ptr %14, align 8, !tbaa !3
  call void @CRYPTO_free(ptr noundef %55, ptr noundef @.str, i32 noundef 532)
  %56 = load ptr, ptr %12, align 8, !tbaa !24
  call void @BN_free(ptr noundef %56)
  %57 = load ptr, ptr %11, align 8, !tbaa !29
  call void @ECDSA_SIG_free(ptr noundef %57)
  %58 = load i32, ptr %16, align 4, !tbaa !14
  call void @llvm.lifetime.end.p0(i64 4, ptr %16) #4
  call void @llvm.lifetime.end.p0(i64 4, ptr %15) #4
  call void @llvm.lifetime.end.p0(i64 8, ptr %14) #4
  call void @llvm.lifetime.end.p0(i64 8, ptr %13) #4
  call void @llvm.lifetime.end.p0(i64 8, ptr %12) #4
  call void @llvm.lifetime.end.p0(i64 8, ptr %11) #4
  ret i32 %58
}