; Function Attrs: nounwind uwtable
define range(i32 -1, 2) i32 @ossl_sm2_internal_verify(ptr noundef %0, i32 noundef %1, ptr noundef %2, i32 noundef %3, ptr noundef %4) local_unnamed_addr #0 {
  %6 = alloca ptr, align 8
  %7 = alloca ptr, align 8
  %8 = alloca ptr, align 8
  call void @llvm.lifetime.start.p0(i64 8, ptr nonnull %6) #4
  call void @llvm.lifetime.start.p0(i64 8, ptr nonnull %7) #4
  store ptr %2, ptr %7, align 8, !tbaa !9
  call void @llvm.lifetime.start.p0(i64 8, ptr nonnull %8) #4
  store ptr null, ptr %8, align 8, !tbaa !9
  %9 = tail call ptr @ECDSA_SIG_new() #4
  store ptr %9, ptr %6, align 8, !tbaa !13
  %10 = icmp eq ptr %9, null
  br i1 %10, label %11, label %12

11:                                               ; preds = %5
  tail call void @ERR_new() #4
  tail call void @ERR_set_debug(ptr noundef nonnull @.str, i32 noundef 509, ptr noundef nonnull @__func__.ossl_sm2_internal_verify) #4
  tail call void (i32, i32, ptr, ...) @ERR_set_error(i32 noundef 53, i32 noundef 524330, ptr noundef null) #4
  br label %30

12:                                               ; preds = %5
  %13 = sext i32 %3 to i64
  %14 = call ptr @d2i_ECDSA_SIG(ptr noundef nonnull %6, ptr noundef nonnull %7, i64 noundef %13) #4
  %15 = icmp eq ptr %14, null
  br i1 %15, label %16, label %17

16:                                               ; preds = %12
  call void @ERR_new() #4
  call void @ERR_set_debug(ptr noundef nonnull @.str, i32 noundef 513, ptr noundef nonnull @__func__.ossl_sm2_internal_verify) #4
  call void (i32, i32, ptr, ...) @ERR_set_error(i32 noundef 53, i32 noundef 104, ptr noundef null) #4
  br label %30

17:                                               ; preds = %12
  %18 = load ptr, ptr %6, align 8, !tbaa !13
  %19 = call i32 @i2d_ECDSA_SIG(ptr noundef %18, ptr noundef nonnull %8) #4
  %.not = icmp eq i32 %19, %3
  br i1 %.not, label %20, label %22

20:                                               ; preds = %17
  %21 = load ptr, ptr %8, align 8, !tbaa !9
  %bcmp = call i32 @bcmp(ptr %2, ptr %21, i64 %13)
  %.not15 = icmp eq i32 %bcmp, 0
  br i1 %.not15, label %23, label %22

22:                                               ; preds = %20, %17
  call void @ERR_new() #4
  call void @ERR_set_debug(ptr noundef nonnull @.str, i32 noundef 519, ptr noundef nonnull @__func__.ossl_sm2_internal_verify) #4
  call void (i32, i32, ptr, ...) @ERR_set_error(i32 noundef 53, i32 noundef 104, ptr noundef null) #4
  br label %30

23:                                               ; preds = %20
  %24 = call ptr @BN_bin2bn(ptr noundef %0, i32 noundef %1, ptr noundef null) #4
  %25 = icmp eq ptr %24, null
  br i1 %25, label %26, label %27

26:                                               ; preds = %23
  call void @ERR_new() #4
  call void @ERR_set_debug(ptr noundef nonnull @.str, i32 noundef 525, ptr noundef nonnull @__func__.ossl_sm2_internal_verify) #4
  call void (i32, i32, ptr, ...) @ERR_set_error(i32 noundef 53, i32 noundef 524291, ptr noundef null) #4
  br label %30

27:                                               ; preds = %23
  %28 = load ptr, ptr %6, align 8, !tbaa !13
  %29 = call fastcc i32 @sm2_sig_verify(ptr noundef %4, ptr noundef %28, ptr noundef %24)
  br label %30

30:                                               ; preds = %27, %26, %22, %16, %11
  %.012 = phi ptr [ null, %11 ], [ null, %16 ], [ null, %22 ], [ null, %26 ], [ %24, %27 ]
  %.0 = phi i32 [ -1, %11 ], [ -1, %16 ], [ -1, %22 ], [ -1, %26 ], [ %29, %27 ]
  %31 = load ptr, ptr %8, align 8, !tbaa !9
  call void @CRYPTO_free(ptr noundef %31, ptr noundef nonnull @.str, i32 noundef 532) #4
  call void @BN_free(ptr noundef %.012) #4
  %32 = load ptr, ptr %6, align 8, !tbaa !13
  call void @ECDSA_SIG_free(ptr noundef %32) #4
  call void @llvm.lifetime.end.p0(i64 8, ptr nonnull %8) #4
  call void @llvm.lifetime.end.p0(i64 8, ptr nonnull %7) #4
  call void @llvm.lifetime.end.p0(i64 8, ptr nonnull %6) #4
  ret i32 %.0
}